target datalayout = "e-m:e-p270:32:32-p271:32:32-p272:64:64-i64:64-i128:128-f80:128-n8:16:32:64-S128"
target triple = "x86_64-pc-linux-gnu"

%"class.ncnn::ParamDict" = type { ptr, ptr }
%"class.ncnn::ParamDictPrivate" = type { [32 x %struct.anon] }
%struct.anon = type { i32, %union.anon, %"class.ncnn::Mat", %"class.std::__cxx11::basic_string" }
%union.anon = type { i32 }
%"class.ncnn::Mat" = type { ptr, ptr, i64, i32, ptr, i32, i32, i32, i32, i32, i64 }
%"class.std::__cxx11::basic_string" = type { %"struct.std::__cxx11::basic_string<char>::_Alloc_hider", i64, %union.anon.0 }
%"struct.std::__cxx11::basic_string<char>::_Alloc_hider" = type { ptr }
%union.anon.0 = type { i64, [8 x i8] }

; Function Attrs: mustprogress nounwind uwtable
define hidden void @_ZN4ncnn9ParamDict3setEif(ptr noundef nonnull align 8 dereferenceable(16) %0, i32 noundef %1, float noundef nofpclass(nan inf) %2) #0 align 2 {
  %4 = alloca ptr, align 8
  %5 = alloca i32, align 4
  %6 = alloca float, align 4
  store ptr %0, ptr %4, align 8, !tbaa !4
  store i32 %1, ptr %5, align 4, !tbaa !15
  store float %2, ptr %6, align 4, !tbaa !58
  %7 = load ptr, ptr %4, align 8
  %8 = getelementptr inbounds nuw %"class.ncnn::ParamDict", ptr %7, i32 0, i32 1
  %9 = load ptr, ptr %8, align 8, !tbaa !11
  %10 = getelementptr inbounds nuw %"class.ncnn::ParamDictPrivate", ptr %9, i32 0, i32 0
  %11 = load i32, ptr %5, align 4, !tbaa !15
  %12 = sext i32 %11 to i64
  %13 = getelementptr inbounds [32 x %struct.anon], ptr %10, i64 0, i64 %12
  %14 = getelementptr inbounds nuw %struct.anon, ptr %13, i32 0, i32 0
  store i32 3, ptr %14, align 8, !tbaa !17
  %15 = load float, ptr %6, align 4, !tbaa !58
  %16 = getelementptr inbounds nuw %"class.ncnn::ParamDict", ptr %7, i32 0, i32 1
  %17 = load ptr, ptr %16, align 8, !tbaa !11
  %18 = getelementptr inbounds nuw %"class.ncnn::ParamDictPrivate", ptr %17, i32 0, i32 0
  %19 = load i32, ptr %5, align 4, !tbaa !15
  %20 = sext i32 %19 to i64
  %21 = getelementptr inbounds [32 x %struct.anon], ptr %18, i64 0, i64 %20
  %22 = getelementptr inbounds nuw %struct.anon, ptr %21, i32 0, i32 1
  store float %15, ptr %22, align 4, !tbaa !26
  ret void
}